target datalayout = "e-m:e-p270:32:32-p271:32:32-p272:64:64-i64:64-i128:128-f80:128-n8:16:32:64-S128"
target triple = "x86_64-pc-linux-gnu"

%struct.UTrie2 = type { ptr, ptr, ptr, i32, i32, i16, i16, i32, i32, i32, i32, ptr, i32, i8, i8, i16, ptr }
%struct.UNewTrie2 = type { [544 x i32], [35488 x i32], ptr, i32, i32, i32, i32, i32, i32, i32, i32, i32, i8, [34852 x i32] }
%struct.NewTrieAndStatus = type { ptr, i32, i8 }
%struct.UTrie = type { ptr, ptr, ptr, i32, i32, i32, i8 }

; Function Attrs: mustprogress uwtable
define internal void @_ZL5set32P9UNewTrie2iajP10UErrorCode(ptr noundef %0, i32 noundef %1, i8 noundef signext %2, i32 noundef %3, ptr noundef %4) #0 {
  %6 = alloca ptr, align 8
  %7 = alloca i32, align 4
  %8 = alloca i8, align 1
  %9 = alloca i32, align 4
  %10 = alloca ptr, align 8
  %11 = alloca i32, align 4
  %12 = alloca i32, align 4
  store ptr %0, ptr %6, align 8, !tbaa !13
  store i32 %1, ptr %7, align 4, !tbaa !3
  store i8 %2, ptr %8, align 1, !tbaa !96
  store i32 %3, ptr %9, align 4, !tbaa !3
  store ptr %4, ptr %10, align 8, !tbaa !7
  call void @llvm.lifetime.start.p0(i64 4, ptr %11) #9
  %13 = load ptr, ptr %6, align 8, !tbaa !13
  %14 = icmp eq ptr %13, null
  br i1 %14, label %20, label %15

15:                                               ; preds = %5
  %16 = load ptr, ptr %6, align 8, !tbaa !13
  %17 = getelementptr inbounds nuw %struct.UNewTrie2, ptr %16, i32 0, i32 12
  %18 = load i8, ptr %17, align 4, !tbaa !31
  %19 = icmp ne i8 %18, 0
  br i1 %19, label %20, label %22

20:                                               ; preds = %15, %5
  %21 = load ptr, ptr %10, align 8, !tbaa !7
  store i32 30, ptr %21, align 4, !tbaa !9
  store i32 1, ptr %12, align 4
  br label %42

22:                                               ; preds = %15
  %23 = load ptr, ptr %6, align 8, !tbaa !13
  %24 = load i32, ptr %7, align 4, !tbaa !3
  %25 = load i8, ptr %8, align 1, !tbaa !96
  %26 = call noundef i32 @_ZL12getDataBlockP9UNewTrie2ia(ptr noundef %23, i32 noundef %24, i8 noundef signext %25)
  store i32 %26, ptr %11, align 4, !tbaa !3
  %27 = load i32, ptr %11, align 4, !tbaa !3
  %28 = icmp slt i32 %27, 0
  br i1 %28, label %29, label %31

29:                                               ; preds = %22
  %30 = load ptr, ptr %10, align 8, !tbaa !7
  store i32 7, ptr %30, align 4, !tbaa !9
  store i32 1, ptr %12, align 4
  br label %42

31:                                               ; preds = %22
  %32 = load i32, ptr %9, align 4, !tbaa !3
  %33 = load ptr, ptr %6, align 8, !tbaa !13
  %34 = getelementptr inbounds nuw %struct.UNewTrie2, ptr %33, i32 0, i32 2
  %35 = load ptr, ptr %34, align 8, !tbaa !24
  %36 = load i32, ptr %11, align 4, !tbaa !3
  %37 = load i32, ptr %7, align 4, !tbaa !3
  %38 = and i32 %37, 31
  %39 = add nsw i32 %36, %38
  %40 = sext i32 %39 to i64
  %41 = getelementptr inbounds i32, ptr %35, i64 %40
  store i32 %32, ptr %41, align 4, !tbaa !3
  store i32 0, ptr %12, align 4
  br label %42

42:                                               ; preds = %31, %29, %20
  call void @llvm.lifetime.end.p0(i64 4, ptr %11) #9
  %43 = load i32, ptr %12, align 4
  switch i32 %43, label %45 [
    i32 0, label %44
    i32 1, label %44
  ]

44:                                               ; preds = %42, %42
  ret void

45:                                               ; preds = %42
  unreachable
}

; Function Attrs: inlinehint mustprogress nounwind uwtable
define internal noundef signext i8 @_ZL9U_SUCCESS10UErrorCode(i32 noundef %0) #2 {
  %2 = alloca i32, align 4
  store i32 %0, ptr %2, align 4, !tbaa !9
  %3 = load i32, ptr %2, align 4, !tbaa !9
  %4 = icmp sle i32 %3, 0
  %5 = zext i1 %4 to i8
  ret i8 %5
}

; Function Attrs: mustprogress uwtable
define void @utrie2_set32ForLeadSurrogateCodeUnit_77(ptr noundef %0, i32 noundef %1, i32 noundef %2, ptr noundef %3) #0 {
  %5 = alloca ptr, align 8
  %6 = alloca i32, align 4
  %7 = alloca i32, align 4
  %8 = alloca ptr, align 8
  store ptr %0, ptr %5, align 8, !tbaa !11
  store i32 %1, ptr %6, align 4, !tbaa !3
  store i32 %2, ptr %7, align 4, !tbaa !3
  store ptr %3, ptr %8, align 8, !tbaa !7
  %9 = load ptr, ptr %8, align 8, !tbaa !7
  %10 = load i32, ptr %9, align 4, !tbaa !9
  %11 = call noundef signext i8 @_ZL9U_FAILURE10UErrorCode(i32 noundef %10)
  %12 = icmp ne i8 %11, 0
  br i1 %12, label %13, label %14

13:                                               ; preds = %4
  br label %27

14:                                               ; preds = %4
  %15 = load i32, ptr %6, align 4, !tbaa !3
  %16 = and i32 %15, -1024
  %17 = icmp eq i32 %16, 55296
  br i1 %17, label %20, label %18

18:                                               ; preds = %14
  %19 = load ptr, ptr %8, align 8, !tbaa !7
  store i32 1, ptr %19, align 4, !tbaa !9
  br label %27

20:                                               ; preds = %14
  %21 = load ptr, ptr %5, align 8, !tbaa !11
  %22 = getelementptr inbounds nuw %struct.UTrie2, ptr %21, i32 0, i32 16
  %23 = load ptr, ptr %22, align 8, !tbaa !23
  %24 = load i32, ptr %6, align 4, !tbaa !3
  %25 = load i32, ptr %7, align 4, !tbaa !3
  %26 = load ptr, ptr %8, align 8, !tbaa !7
  call void @_ZL5set32P9UNewTrie2iajP10UErrorCode(ptr noundef %23, i32 noundef %24, i8 noundef signext 0, i32 noundef %25, ptr noundef %26)
  br label %27

27:                                               ; preds = %20, %18, %13
  ret void
}

; Function Attrs: inlinehint mustprogress nounwind uwtable
define internal noundef signext i8 @_ZL9U_FAILURE10UErrorCode(i32 noundef %0) #2 {
  %2 = alloca i32, align 4
  store i32 %0, ptr %2, align 4, !tbaa !9
  %3 = load i32, ptr %2, align 4, !tbaa !9
  %4 = icmp sgt i32 %3, 0
  %5 = zext i1 %4 to i8
  ret i8 %5
}

; Function Attrs: mustprogress uwtable
define ptr @utrie2_fromUTrie_77(ptr noundef %0, i32 noundef %1, ptr noundef %2) #0 {
  %4 = alloca ptr, align 8
  %5 = alloca ptr, align 8
  %6 = alloca i32, align 4
  %7 = alloca ptr, align 8
  %8 = alloca %struct.NewTrieAndStatus, align 8
  %9 = alloca i16, align 2
  %10 = alloca i32, align 4
  %11 = alloca i32, align 4
  store ptr %0, ptr %5, align 8, !tbaa !65
  store i32 %1, ptr %6, align 4, !tbaa !3
  store ptr %2, ptr %7, align 8, !tbaa !7
  call void @llvm.lifetime.start.p0(i64 16, ptr %8) #9
  call void @llvm.lifetime.start.p0(i64 2, ptr %9) #9
  %12 = load ptr, ptr %7, align 8, !tbaa !7
  %13 = load i32, ptr %12, align 4, !tbaa !9
  %14 = call noundef signext i8 @_ZL9U_FAILURE10UErrorCode(i32 noundef %13)
  %15 = icmp ne i8 %14, 0
  br i1 %15, label %16, label %17

16:                                               ; preds = %3
  store ptr null, ptr %4, align 8
  store i32 1, ptr %10, align 4
  br label %143

17:                                               ; preds = %3
  %18 = load ptr, ptr %5, align 8, !tbaa !65
  %19 = icmp eq ptr %18, null
  br i1 %19, label %20, label %22

20:                                               ; preds = %17
  %21 = load ptr, ptr %7, align 8, !tbaa !7
  store i32 1, ptr %21, align 4, !tbaa !9
  store ptr null, ptr %4, align 8
  store i32 1, ptr %10, align 4
  br label %143

22:                                               ; preds = %17
  %23 = load ptr, ptr %5, align 8, !tbaa !65
  %24 = getelementptr inbounds nuw %struct.UTrie, ptr %23, i32 0, i32 5
  %25 = load i32, ptr %24, align 8, !tbaa !67
  %26 = load i32, ptr %6, align 4, !tbaa !3
  %27 = load ptr, ptr %7, align 8, !tbaa !7
  %28 = call ptr @utrie2_open_77(i32 noundef %25, i32 noundef %26, ptr noundef %27)
  %29 = getelementptr inbounds nuw %struct.NewTrieAndStatus, ptr %8, i32 0, i32 0
  store ptr %28, ptr %29, align 8, !tbaa !55
  %30 = load ptr, ptr %7, align 8, !tbaa !7
  %31 = load i32, ptr %30, align 4, !tbaa !9
  %32 = call noundef signext i8 @_ZL9U_FAILURE10UErrorCode(i32 noundef %31)
  %33 = icmp ne i8 %32, 0
  br i1 %33, label %34, label %35

34:                                               ; preds = %22
  store ptr null, ptr %4, align 8
  store i32 1, ptr %10, align 4
  br label %143

35:                                               ; preds = %22
  %36 = getelementptr inbounds nuw %struct.NewTrieAndStatus, ptr %8, i32 0, i32 2
  store i8 1, ptr %36, align 4, !tbaa !57
  %37 = load ptr, ptr %7, align 8, !tbaa !7
  %38 = load i32, ptr %37, align 4, !tbaa !9
  %39 = getelementptr inbounds nuw %struct.NewTrieAndStatus, ptr %8, i32 0, i32 1
  store i32 %38, ptr %39, align 8, !tbaa !58
  %40 = load ptr, ptr %5, align 8, !tbaa !65
  call void @utrie_enum_77(ptr noundef %40, ptr noundef null, ptr noundef @_ZL13copyEnumRangePKviij, ptr noundef %8)
  %41 = getelementptr inbounds nuw %struct.NewTrieAndStatus, ptr %8, i32 0, i32 1
  %42 = load i32, ptr %41, align 8, !tbaa !58
  %43 = load ptr, ptr %7, align 8, !tbaa !7
  store i32 %42, ptr %43, align 4, !tbaa !9
  store i16 -10240, ptr %9, align 2, !tbaa !59
  br label %44

44:                                               ; preds = %114, %35
  %45 = load i16, ptr %9, align 2, !tbaa !59
  %46 = zext i16 %45 to i32
  %47 = icmp slt i32 %46, 56320
  br i1 %47, label %48, label %117

48:                                               ; preds = %44
  call void @llvm.lifetime.start.p0(i64 4, ptr %11) #9
  %49 = load ptr, ptr %5, align 8, !tbaa !65
  %50 = getelementptr inbounds nuw %struct.UTrie, ptr %49, i32 0, i32 1
  %51 = load ptr, ptr %50, align 8, !tbaa !69
  %52 = icmp eq ptr %51, null
  br i1 %52, label %53, label %77

53:                                               ; preds = %48
  %54 = load ptr, ptr %5, align 8, !tbaa !65
  %55 = getelementptr inbounds nuw %struct.UTrie, ptr %54, i32 0, i32 0
  %56 = load ptr, ptr %55, align 8, !tbaa !70
  %57 = load ptr, ptr %5, align 8, !tbaa !65
  %58 = getelementptr inbounds nuw %struct.UTrie, ptr %57, i32 0, i32 0
  %59 = load ptr, ptr %58, align 8, !tbaa !70
  %60 = load i16, ptr %9, align 2, !tbaa !59
  %61 = zext i16 %60 to i32
  %62 = ashr i32 %61, 5
  %63 = add nsw i32 0, %62
  %64 = sext i32 %63 to i64
  %65 = getelementptr inbounds i16, ptr %59, i64 %64
  %66 = load i16, ptr %65, align 2, !tbaa !61
  %67 = zext i16 %66 to i32
  %68 = shl i32 %67, 2
  %69 = load i16, ptr %9, align 2, !tbaa !59
  %70 = zext i16 %69 to i32
  %71 = and i32 %70, 31
  %72 = add nsw i32 %68, %71
  %73 = sext i32 %72 to i64
  %74 = getelementptr inbounds i16, ptr %56, i64 %73
  %75 = load i16, ptr %74, align 2, !tbaa !61
  %76 = zext i16 %75 to i32
  store i32 %76, ptr %11, align 4, !tbaa !3
  br label %100

77:                                               ; preds = %48
  %78 = load ptr, ptr %5, align 8, !tbaa !65
  %79 = getelementptr inbounds nuw %struct.UTrie, ptr %78, i32 0, i32 1
  %80 = load ptr, ptr %79, align 8, !tbaa !69
  %81 = load ptr, ptr %5, align 8, !tbaa !65
  %82 = getelementptr inbounds nuw %struct.UTrie, ptr %81, i32 0, i32 0
  %83 = load ptr, ptr %82, align 8, !tbaa !70
  %84 = load i16, ptr %9, align 2, !tbaa !59
  %85 = zext i16 %84 to i32
  %86 = ashr i32 %85, 5
  %87 = add nsw i32 0, %86
  %88 = sext i32 %87 to i64
  %89 = getelementptr inbounds i16, ptr %83, i64 %88
  %90 = load i16, ptr %89, align 2, !tbaa !61
  %91 = zext i16 %90 to i32
  %92 = shl i32 %91, 2
  %93 = load i16, ptr %9, align 2, !tbaa !59
  %94 = zext i16 %93 to i32
  %95 = and i32 %94, 31
  %96 = add nsw i32 %92, %95
  %97 = sext i32 %96 to i64
  %98 = getelementptr inbounds i32, ptr %80, i64 %97
  %99 = load i32, ptr %98, align 4, !tbaa !3
  store i32 %99, ptr %11, align 4, !tbaa !3
  br label %100

100:                                              ; preds = %77, %53
  %101 = load i32, ptr %11, align 4, !tbaa !3
  %102 = load ptr, ptr %5, align 8, !tbaa !65
  %103 = getelementptr inbounds nuw %struct.UTrie, ptr %102, i32 0, i32 5
  %104 = load i32, ptr %103, align 8, !tbaa !67
  %105 = icmp ne i32 %101, %104
  br i1 %105, label %106, label %113

106:                                              ; preds = %100
  %107 = getelementptr inbounds nuw %struct.NewTrieAndStatus, ptr %8, i32 0, i32 0
  %108 = load ptr, ptr %107, align 8, !tbaa !55
  %109 = load i16, ptr %9, align 2, !tbaa !59
  %110 = zext i16 %109 to i32
  %111 = load i32, ptr %11, align 4, !tbaa !3
  %112 = load ptr, ptr %7, align 8, !tbaa !7
  call void @utrie2_set32ForLeadSurrogateCodeUnit_77(ptr noundef %108, i32 noundef %110, i32 noundef %111, ptr noundef %112)
  br label %113

113:                                              ; preds = %106, %100
  call void @llvm.lifetime.end.p0(i64 4, ptr %11) #9
  br label %114

114:                                              ; preds = %113
  %115 = load i16, ptr %9, align 2, !tbaa !59
  %116 = add i16 %115, 1
  store i16 %116, ptr %9, align 2, !tbaa !59
  br label %44, !llvm.loop !71

117:                                              ; preds = %44
  %118 = load ptr, ptr %7, align 8, !tbaa !7
  %119 = load i32, ptr %118, align 4, !tbaa !9
  %120 = call noundef signext i8 @_ZL9U_SUCCESS10UErrorCode(i32 noundef %119)
  %121 = icmp ne i8 %120, 0
  br i1 %121, label %122, label %131

122:                                              ; preds = %117
  %123 = getelementptr inbounds nuw %struct.NewTrieAndStatus, ptr %8, i32 0, i32 0
  %124 = load ptr, ptr %123, align 8, !tbaa !55
  %125 = load ptr, ptr %5, align 8, !tbaa !65
  %126 = getelementptr inbounds nuw %struct.UTrie, ptr %125, i32 0, i32 1
  %127 = load ptr, ptr %126, align 8, !tbaa !69
  %128 = icmp ne ptr %127, null
  %129 = select i1 %128, i32 1, i32 0
  %130 = load ptr, ptr %7, align 8, !tbaa !7
  call void @utrie2_freeze_77(ptr noundef %124, i32 noundef %129, ptr noundef %130)
  br label %131

131:                                              ; preds = %122, %117
  %132 = load ptr, ptr %7, align 8, !tbaa !7
  %133 = load i32, ptr %132, align 4, !tbaa !9
  %134 = call noundef signext i8 @_ZL9U_FAILURE10UErrorCode(i32 noundef %133)
  %135 = icmp ne i8 %134, 0
  br i1 %135, label %136, label %140

136:                                              ; preds = %131
  %137 = getelementptr inbounds nuw %struct.NewTrieAndStatus, ptr %8, i32 0, i32 0
  %138 = load ptr, ptr %137, align 8, !tbaa !55
  call void @utrie2_close_77(ptr noundef %138)
  %139 = getelementptr inbounds nuw %struct.NewTrieAndStatus, ptr %8, i32 0, i32 0
  store ptr null, ptr %139, align 8, !tbaa !55
  br label %140

140:                                              ; preds = %136, %131
  %141 = getelementptr inbounds nuw %struct.NewTrieAndStatus, ptr %8, i32 0, i32 0
  %142 = load ptr, ptr %141, align 8, !tbaa !55
  store ptr %142, ptr %4, align 8
  store i32 1, ptr %10, align 4
  br label %143

143:                                              ; preds = %140, %34, %20, %16
  call void @llvm.lifetime.end.p0(i64 2, ptr %9) #9
  call void @llvm.lifetime.end.p0(i64 16, ptr %8) #9
  %144 = load ptr, ptr %4, align 8
  ret ptr %144
}