; Function Attrs: mustprogress uwtable
define ptr @utrie2_fromUTrie_77(ptr noundef %0, i32 noundef %1, ptr noundef captures(none) %2) local_unnamed_addr #0 {
  %4 = alloca %struct.NewTrieAndStatus, align 8
  call void @llvm.lifetime.start.p0(i64 16, ptr nonnull %4) #8
  %5 = load i32, ptr %2, align 4, !tbaa !3
  %6 = icmp slt i32 %5, 1
  br i1 %6, label %7, label %77

7:                                                ; preds = %3
  %8 = icmp eq ptr %0, null
  br i1 %8, label %9, label %10

9:                                                ; preds = %7
  store i32 1, ptr %2, align 4, !tbaa !3
  br label %77

10:                                               ; preds = %7
  %11 = getelementptr inbounds nuw i8, ptr %0, i64 32
  %12 = load i32, ptr %11, align 8, !tbaa !55
  %13 = tail call ptr @utrie2_open_77(i32 noundef %12, i32 noundef %1, ptr noundef nonnull %2)
  store ptr %13, ptr %4, align 8, !tbaa !48
  %14 = load i32, ptr %2, align 4, !tbaa !3
  %15 = icmp slt i32 %14, 1
  br i1 %15, label %16, label %77

16:                                               ; preds = %10
  %17 = getelementptr inbounds nuw i8, ptr %4, i64 12
  store i8 1, ptr %17, align 4, !tbaa !51
  %18 = getelementptr inbounds nuw i8, ptr %4, i64 8
  store i32 %14, ptr %18, align 8, !tbaa !52
  call void @utrie_enum_77(ptr noundef nonnull %0, ptr noundef null, ptr noundef nonnull @_ZL13copyEnumRangePKviij, ptr noundef nonnull %4)
  %19 = load i32, ptr %18, align 8, !tbaa !52
  store i32 %19, ptr %2, align 4, !tbaa !3
  %20 = getelementptr inbounds nuw i8, ptr %0, i64 8
  br label %21

21:                                               ; preds = %16, %utrie2_set32ForLeadSurrogateCodeUnit_77.exit
  %indvars.iv = phi i32 [ 55296, %16 ], [ %indvars.iv.next, %utrie2_set32ForLeadSurrogateCodeUnit_77.exit ]
  %22 = load ptr, ptr %20, align 8, !tbaa !57
  %23 = icmp eq ptr %22, null
  %24 = load ptr, ptr %0, align 8, !tbaa !58
  %25 = lshr i32 %indvars.iv, 5
  %26 = zext nneg i32 %25 to i64
  %27 = getelementptr inbounds nuw i16, ptr %24, i64 %26
  %28 = load i16, ptr %27, align 2, !tbaa !53
  %29 = zext i16 %28 to i32
  %30 = shl nuw nsw i32 %29, 2
  %31 = and i32 %indvars.iv, 31
  %32 = add nuw nsw i32 %30, %31
  %33 = zext nneg i32 %32 to i64
  br i1 %23, label %34, label %38

34:                                               ; preds = %21
  %35 = getelementptr inbounds nuw i16, ptr %24, i64 %33
  %36 = load i16, ptr %35, align 2, !tbaa !53
  %37 = zext i16 %36 to i32
  br label %41

38:                                               ; preds = %21
  %39 = getelementptr inbounds nuw i32, ptr %22, i64 %33
  %40 = load i32, ptr %39, align 4, !tbaa !26
  br label %41

41:                                               ; preds = %38, %34
  %.0 = phi i32 [ %37, %34 ], [ %40, %38 ]
  %42 = load i32, ptr %11, align 8, !tbaa !55
  %.not39 = icmp eq i32 %.0, %42
  br i1 %.not39, label %utrie2_set32ForLeadSurrogateCodeUnit_77.exit, label %43

43:                                               ; preds = %41
  %44 = load ptr, ptr %4, align 8, !tbaa !48
  %45 = load i32, ptr %2, align 4, !tbaa !3
  %46 = icmp slt i32 %45, 1
  br i1 %46, label %47, label %utrie2_set32ForLeadSurrogateCodeUnit_77.exit

47:                                               ; preds = %43
  %48 = and i32 %indvars.iv, 64512
  %49 = icmp eq i32 %48, 55296
  br i1 %49, label %51, label %50

50:                                               ; preds = %47
  store i32 1, ptr %2, align 4, !tbaa !3
  br label %utrie2_set32ForLeadSurrogateCodeUnit_77.exit

51:                                               ; preds = %47
  %52 = getelementptr inbounds nuw i8, ptr %44, i64 72
  %53 = load ptr, ptr %52, align 8, !tbaa !17
  %54 = icmp eq ptr %53, null
  br i1 %54, label %58, label %55

55:                                               ; preds = %51
  %56 = getelementptr inbounds nuw i8, ptr %53, i64 144172
  %57 = load i8, ptr %56, align 4, !tbaa !25
  %.not.i.i = icmp eq i8 %57, 0
  br i1 %.not.i.i, label %59, label %58

58:                                               ; preds = %55, %51
  store i32 30, ptr %2, align 4, !tbaa !3
  br label %utrie2_set32ForLeadSurrogateCodeUnit_77.exit

59:                                               ; preds = %55
  %60 = call fastcc noundef i32 @_ZL12getDataBlockP9UNewTrie2ia(ptr noundef %53, i32 noundef %indvars.iv, i8 noundef signext 0)
  %61 = icmp slt i32 %60, 0
  br i1 %61, label %62, label %63

62:                                               ; preds = %59
  store i32 7, ptr %2, align 4, !tbaa !3
  br label %utrie2_set32ForLeadSurrogateCodeUnit_77.exit

63:                                               ; preds = %59
  %64 = getelementptr inbounds nuw i8, ptr %53, i64 144128
  %65 = load ptr, ptr %64, align 8, !tbaa !18
  %66 = and i32 %indvars.iv, 31
  %67 = add nuw nsw i32 %60, %66
  %68 = zext nneg i32 %67 to i64
  %69 = getelementptr inbounds nuw i32, ptr %65, i64 %68
  store i32 %.0, ptr %69, align 4, !tbaa !26
  br label %utrie2_set32ForLeadSurrogateCodeUnit_77.exit

utrie2_set32ForLeadSurrogateCodeUnit_77.exit:     ; preds = %63, %62, %58, %50, %43, %41
  %indvars.iv.next = add nuw nsw i32 %indvars.iv, 1
  %exitcond.not = icmp eq i32 %indvars.iv.next, 56320
  br i1 %exitcond.not, label %70, label %21, !llvm.loop !59

70:                                               ; preds = %utrie2_set32ForLeadSurrogateCodeUnit_77.exit
  %71 = load i32, ptr %2, align 4, !tbaa !3
  %72 = icmp sgt i32 %71, 0
  %.pre42.pre43 = load ptr, ptr %4, align 8, !tbaa !48
  br i1 %72, label %.thread, label %73

73:                                               ; preds = %70
  %74 = load ptr, ptr %20, align 8, !tbaa !57
  %.not37 = icmp ne ptr %74, null
  %75 = zext i1 %.not37 to i32
  call void @utrie2_freeze_77(ptr noundef %.pre42.pre43, i32 noundef %75, ptr noundef nonnull %2)
  %.pre = load i32, ptr %2, align 4, !tbaa !3
  %.pre42.pre = load ptr, ptr %4, align 8, !tbaa !48
  %76 = icmp slt i32 %.pre, 1
  br i1 %76, label %77, label %.thread

.thread:                                          ; preds = %70, %73
  %.pre4246 = phi ptr [ %.pre42.pre, %73 ], [ %.pre42.pre43, %70 ]
  call void @utrie2_close_77(ptr noundef %.pre4246)
  br label %77

77:                                               ; preds = %73, %.thread, %10, %3, %9
  %.031 = phi ptr [ null, %9 ], [ null, %3 ], [ null, %10 ], [ null, %.thread ], [ %.pre42.pre, %73 ]
  call void @llvm.lifetime.end.p0(i64 16, ptr nonnull %4) #8
  ret ptr %.031
}